target datalayout = "e-m:e-p270:32:32-p271:32:32-p272:64:64-i64:64-i128:128-f80:128-n8:16:32:64-S128"
target triple = "x86_64-pc-linux-gnu"

%"struct.QListData::Data" = type { %"class.QtPrivate::RefCount", i32, i32, i32, [1 x ptr] }
%"class.QtPrivate::RefCount" = type { %class.QBasicAtomicInteger }
%class.QBasicAtomicInteger = type { %"struct.std::atomic.42" }
%"struct.std::atomic.42" = type { %"struct.std::__atomic_base.43" }
%"struct.std::__atomic_base.43" = type { i32 }
%class.QObject = type { ptr, %class.QScopedPointer }
%class.QScopedPointer = type { ptr }
%struct.QListData = type { ptr }
%class.MultiViewer_Container = type { %class.Splitter, %class.MeshDocument, ptr, i32, ptr, %class.QList.28 }
%class.Splitter = type { %class.QSplitter }
%class.QSplitter = type { %class.QFrame }
%class.QFrame = type { %class.QWidget }
%class.QWidget = type { %class.QObject, %class.QPaintDevice, ptr }
%class.QPaintDevice = type { ptr, i16, ptr }
%class.MeshDocument = type { %class.QObject, %class.GLLogStream, %class.FilterScript, %"class.std::__cxx11::list", %"class.std::__cxx11::list.22", i32, i32, %class.QString, %class.QString, %class.MeshDocumentStateData, i8, ptr, ptr }
%class.GLLogStream = type { %class.QObject, i32, %class.QList, %class.QMultiMap }
%class.QList = type { %union.anon }
%union.anon = type { %struct.QListData }
%class.QMultiMap = type { %class.QMap }
%class.QMap = type { ptr }
%class.FilterScript = type { %class.QObject, %class.QList.16 }
%class.QList.16 = type { %union.anon.18 }
%union.anon.18 = type { %struct.QListData }
%"class.std::__cxx11::list" = type { %"class.std::__cxx11::_List_base" }
%"class.std::__cxx11::_List_base" = type { %"struct.std::__cxx11::_List_base<MeshModel, std::allocator<MeshModel>>::_List_impl" }
%"struct.std::__cxx11::_List_base<MeshModel, std::allocator<MeshModel>>::_List_impl" = type { %"struct.std::__detail::_List_node_header" }
%"struct.std::__detail::_List_node_header" = type { %"struct.std::__detail::_List_node_base", i64 }
%"struct.std::__detail::_List_node_base" = type { ptr, ptr }
%"class.std::__cxx11::list.22" = type { %"class.std::__cxx11::_List_base.23" }
%"class.std::__cxx11::_List_base.23" = type { %"struct.std::__cxx11::_List_base<RasterModel, std::allocator<RasterModel>>::_List_impl" }
%"struct.std::__cxx11::_List_base<RasterModel, std::allocator<RasterModel>>::_List_impl" = type { %"struct.std::__detail::_List_node_header" }
%class.QString = type { ptr }
%class.MeshDocumentStateData = type { %class.QReadWriteLock, %class.QMap.27 }
%class.QReadWriteLock = type { %class.QAtomicPointer }
%class.QAtomicPointer = type { %class.QBasicAtomicPointer }
%class.QBasicAtomicPointer = type { %"struct.std::atomic" }
%"struct.std::atomic" = type { %"struct.std::__atomic_base" }
%"struct.std::__atomic_base" = type { ptr }
%class.QMap.27 = type { ptr }
%class.QList.28 = type { %union.anon.30 }
%union.anon.30 = type { %struct.QListData }

@_ZTV8Splitter = external unnamed_addr constant { [56 x ptr], [10 x ptr] }, align 8
@_ZTV21MultiViewer_Container = external unnamed_addr constant { [56 x ptr], [10 x ptr] }, align 8
@_ZN9QListData11shared_nullE = external global %"struct.QListData::Data", align 8

; Function Attrs: mustprogress nounwind uwtable
define linkonce_odr void @_ZN8SplitterD2Ev(ptr noundef nonnull align 8 dereferenceable(48) %0) unnamed_addr #4 comdat align 2 {
  %2 = alloca ptr, align 8
  store ptr %0, ptr %2, align 8
  %3 = load ptr, ptr %2, align 8
  call void @_ZN9QSplitterD2Ev(ptr noundef nonnull align 8 dereferenceable(48) %3) #3
  ret void
}

; Function Attrs: mustprogress nounwind uwtable
define linkonce_odr void @_ZN5QListIP6GLAreaEC2Ev(ptr noundef nonnull align 8 dereferenceable(8) %0) unnamed_addr #4 comdat align 2 {
  %2 = alloca ptr, align 8
  store ptr %0, ptr %2, align 8
  %3 = load ptr, ptr %2, align 8
  %4 = getelementptr inbounds %class.QList.28, ptr %3, i32 0, i32 0
  store ptr @_ZN9QListData11shared_nullE, ptr %4, align 8
  ret void
}

; Function Attrs: mustprogress uwtable
define void @_ZN8SplitterC2EP7QWidget(ptr noundef nonnull align 8 dereferenceable(48) %0, ptr noundef %1) unnamed_addr #5 align 2 {
  %3 = alloca ptr, align 8
  %4 = alloca ptr, align 8
  store ptr %0, ptr %3, align 8
  store ptr %1, ptr %4, align 8
  %5 = load ptr, ptr %3, align 8
  %6 = load ptr, ptr %4, align 8
  call void @_ZN9QSplitterC2EP7QWidget(ptr noundef nonnull align 8 dereferenceable(48) %5, ptr noundef %6)
  store ptr getelementptr inbounds ({ [56 x ptr], [10 x ptr] }, ptr @_ZTV8Splitter, i32 0, i32 0, i32 2), ptr %5, align 8
  %7 = getelementptr inbounds i8, ptr %5, i64 16
  store ptr getelementptr inbounds ({ [56 x ptr], [10 x ptr] }, ptr @_ZTV8Splitter, i32 0, i32 1, i32 2), ptr %7, align 8
  ret void
}

; Function Attrs: mustprogress uwtable
define void @_ZN21MultiViewer_ContainerC2ERN3vcg22QtThreadSafeMemoryInfoEbmmP7QWidget(ptr noundef nonnull align 8 dereferenceable(272) %0, ptr noundef nonnull align 8 dereferenceable(32) %1, i1 noundef zeroext %2, i64 noundef %3, i64 noundef %4, ptr noundef %5) unnamed_addr #5 align 2 personality ptr @__gxx_personality_v0 {
  %7 = alloca ptr, align 8
  %8 = alloca ptr, align 8
  %9 = alloca i8, align 1
  %10 = alloca i64, align 8
  %11 = alloca i64, align 8
  %12 = alloca ptr, align 8
  %13 = alloca ptr, align 8
  %14 = alloca i32, align 4
  store ptr %0, ptr %7, align 8
  store ptr %1, ptr %8, align 8
  %15 = zext i1 %2 to i8
  store i8 %15, ptr %9, align 1
  store i64 %3, ptr %10, align 8
  store i64 %4, ptr %11, align 8
  store ptr %5, ptr %12, align 8
  %16 = load ptr, ptr %7, align 8
  %17 = load ptr, ptr %12, align 8
  call void @_ZN8SplitterC2EP7QWidget(ptr noundef nonnull align 8 dereferenceable(48) %16, ptr noundef %17)
  store ptr getelementptr inbounds ({ [56 x ptr], [10 x ptr] }, ptr @_ZTV21MultiViewer_Container, i32 0, i32 0, i32 2), ptr %16, align 8
  %18 = getelementptr inbounds i8, ptr %16, i64 16
  store ptr getelementptr inbounds ({ [56 x ptr], [10 x ptr] }, ptr @_ZTV21MultiViewer_Container, i32 0, i32 1, i32 2), ptr %18, align 8
  %19 = getelementptr inbounds %class.MultiViewer_Container, ptr %16, i32 0, i32 1
  invoke void @_ZN12MeshDocumentC1Ev(ptr noundef nonnull align 8 dereferenceable(192) %19)
          to label %20 unwind label %44

20:                                               ; preds = %6
  %21 = getelementptr inbounds %class.MultiViewer_Container, ptr %16, i32 0, i32 5
  call void @_ZN5QListIP6GLAreaEC2Ev(ptr noundef nonnull align 8 dereferenceable(8) %21) #3
  invoke void @_ZN9QSplitter22setChildrenCollapsibleEb(ptr noundef nonnull align 8 dereferenceable(48) %16, i1 noundef zeroext false)
          to label %22 unwind label %48

22:                                               ; preds = %20
  %23 = invoke noalias noundef nonnull ptr @_Znwm(i64 noundef 168) #16
          to label %24 unwind label %48

24:                                               ; preds = %22
  %25 = getelementptr inbounds %class.MultiViewer_Container, ptr %16, i32 0, i32 1
  %26 = load ptr, ptr %8, align 8
  %27 = load i8, ptr %9, align 1
  %28 = trunc i8 %27 to i1
  %29 = load i64, ptr %10, align 8
  %30 = load i64, ptr %11, align 8
  invoke void @_ZN26MLSceneGLSharedDataContextC1ER12MeshDocumentRN3vcg22QtThreadSafeMemoryInfoEbmm(ptr noundef nonnull align 8 dereferenceable(168) %23, ptr noundef nonnull align 8 dereferenceable(192) %25, ptr noundef nonnull align 8 dereferenceable(32) %26, i1 noundef zeroext %28, i64 noundef %29, i64 noundef %30)
          to label %31 unwind label %52

31:                                               ; preds = %24
  %32 = getelementptr inbounds %class.MultiViewer_Container, ptr %16, i32 0, i32 2
  store ptr %23, ptr %32, align 8
  %33 = getelementptr inbounds %class.MultiViewer_Container, ptr %16, i32 0, i32 2
  %34 = load ptr, ptr %33, align 8
  invoke void @_ZN7QWidget9setHiddenEb(ptr noundef nonnull align 8 dereferenceable(48) %34, i1 noundef zeroext true)
          to label %35 unwind label %48

35:                                               ; preds = %31
  %36 = getelementptr inbounds %class.MultiViewer_Container, ptr %16, i32 0, i32 2
  %37 = load ptr, ptr %36, align 8
  %38 = load ptr, ptr %37, align 8
  %39 = getelementptr inbounds ptr, ptr %38, i64 54
  %40 = load ptr, ptr %39, align 8
  invoke void %40(ptr noundef nonnull align 8 dereferenceable(168) %37)
          to label %41 unwind label %48

41:                                               ; preds = %35
  %42 = getelementptr inbounds %class.MultiViewer_Container, ptr %16, i32 0, i32 3
  store i32 -1, ptr %42, align 8
  %43 = getelementptr inbounds %class.MultiViewer_Container, ptr %16, i32 0, i32 4
  store ptr null, ptr %43, align 8
  ret void

44:                                               ; preds = %6
  %45 = landingpad { ptr, i32 }
          cleanup
  %46 = extractvalue { ptr, i32 } %45, 0
  store ptr %46, ptr %13, align 8
  %47 = extractvalue { ptr, i32 } %45, 1
  store i32 %47, ptr %14, align 4
  br label %57

48:                                               ; preds = %35, %31, %22, %20
  %49 = landingpad { ptr, i32 }
          cleanup
  %50 = extractvalue { ptr, i32 } %49, 0
  store ptr %50, ptr %13, align 8
  %51 = extractvalue { ptr, i32 } %49, 1
  store i32 %51, ptr %14, align 4
  br label %56

52:                                               ; preds = %24
  %53 = landingpad { ptr, i32 }
          cleanup
  %54 = extractvalue { ptr, i32 } %53, 0
  store ptr %54, ptr %13, align 8
  %55 = extractvalue { ptr, i32 } %53, 1
  store i32 %55, ptr %14, align 4
  call void @_ZdlPv(ptr noundef %23) #17
  br label %56

56:                                               ; preds = %52, %48
  call void @_ZN5QListIP6GLAreaED2Ev(ptr noundef nonnull align 8 dereferenceable(8) %21) #3
  call void @_ZN12MeshDocumentD1Ev(ptr noundef nonnull align 8 dereferenceable(192) %19) #3
  br label %57

57:                                               ; preds = %56, %44
  call void @_ZN8SplitterD2Ev(ptr noundef nonnull align 8 dereferenceable(48) %16) #3
  br label %58

58:                                               ; preds = %57
  %59 = load ptr, ptr %13, align 8
  %60 = load i32, ptr %14, align 4
  %61 = insertvalue { ptr, i32 } poison, ptr %59, 0
  %62 = insertvalue { ptr, i32 } %61, i32 %60, 1
  resume { ptr, i32 } %62
}