; Function Attrs: mustprogress uwtable
define void @_ZN21MultiViewer_ContainerC2ERN3vcg22QtThreadSafeMemoryInfoEbmmP7QWidget(ptr noundef nonnull align 8 dereferenceable(272) %0, ptr noundef nonnull align 8 dereferenceable(32) %1, i1 noundef zeroext %2, i64 noundef %3, i64 noundef %4, ptr noundef %5) unnamed_addr #9 align 2 personality ptr @__gxx_personality_v0 {
  tail call void @_ZN9QSplitterC2EP7QWidget(ptr noundef nonnull align 8 dereferenceable(48) %0, ptr noundef %5)
  %7 = getelementptr inbounds i8, ptr %0, i64 16
  store ptr getelementptr inbounds ({ [56 x ptr], [10 x ptr] }, ptr @_ZTV21MultiViewer_Container, i64 0, i32 0, i64 2), ptr %0, align 8
  store ptr getelementptr inbounds ({ [56 x ptr], [10 x ptr] }, ptr @_ZTV21MultiViewer_Container, i64 0, i32 1, i64 2), ptr %7, align 8
  %8 = getelementptr inbounds i8, ptr %0, i64 48
  invoke void @_ZN12MeshDocumentC1Ev(ptr noundef nonnull align 8 dereferenceable(192) %8)
          to label %9 unwind label %24

9:                                                ; preds = %6
  %10 = getelementptr inbounds i8, ptr %0, i64 264
  store ptr @_ZN9QListData11shared_nullE, ptr %10, align 8
  invoke void @_ZN9QSplitter22setChildrenCollapsibleEb(ptr noundef nonnull align 8 dereferenceable(48) %0, i1 noundef zeroext false)
          to label %11 unwind label %26

11:                                               ; preds = %9
  %12 = invoke noalias noundef nonnull dereferenceable(168) ptr @_Znwm(i64 noundef 168) #22
          to label %13 unwind label %26

13:                                               ; preds = %11
  invoke void @_ZN26MLSceneGLSharedDataContextC1ER12MeshDocumentRN3vcg22QtThreadSafeMemoryInfoEbmm(ptr noundef nonnull align 8 dereferenceable(168) %12, ptr noundef nonnull align 8 dereferenceable(192) %8, ptr noundef nonnull align 8 dereferenceable(32) %1, i1 noundef zeroext %2, i64 noundef %3, i64 noundef %4)
          to label %14 unwind label %28

14:                                               ; preds = %13
  %15 = getelementptr inbounds i8, ptr %0, i64 240
  store ptr %12, ptr %15, align 8
  invoke void @_ZN7QWidget9setHiddenEb(ptr noundef nonnull align 8 dereferenceable(48) %12, i1 noundef zeroext true)
          to label %16 unwind label %26

16:                                               ; preds = %14
  %17 = load ptr, ptr %15, align 8
  %18 = load ptr, ptr %17, align 8
  %19 = getelementptr inbounds i8, ptr %18, i64 432
  %20 = load ptr, ptr %19, align 8
  invoke void %20(ptr noundef nonnull align 8 dereferenceable(168) %17)
          to label %21 unwind label %26

21:                                               ; preds = %16
  %22 = getelementptr inbounds i8, ptr %0, i64 248
  store i32 -1, ptr %22, align 8
  %23 = getelementptr inbounds i8, ptr %0, i64 256
  store ptr null, ptr %23, align 8
  ret void

24:                                               ; preds = %6
  %25 = landingpad { ptr, i32 }
          cleanup
  br label %31

26:                                               ; preds = %16, %14, %11, %9
  %27 = landingpad { ptr, i32 }
          cleanup
  br label %30

28:                                               ; preds = %13
  %29 = landingpad { ptr, i32 }
          cleanup
  tail call void @_ZdlPv(ptr noundef nonnull %12) #18
  br label %30

30:                                               ; preds = %28, %26
  %.pn = phi { ptr, i32 } [ %27, %26 ], [ %29, %28 ]
  tail call void @_ZN5QListIP6GLAreaED2Ev(ptr noundef nonnull align 8 dereferenceable(8) %10) #19
  tail call void @_ZN12MeshDocumentD1Ev(ptr noundef nonnull align 8 dereferenceable(192) %8) #19
  br label %31

31:                                               ; preds = %30, %24
  %.pn.pn = phi { ptr, i32 } [ %.pn, %30 ], [ %25, %24 ]
  tail call void @_ZN9QSplitterD2Ev(ptr noundef nonnull align 8 dereferenceable(48) %0) #19
  resume { ptr, i32 } %.pn.pn
}